target datalayout = "e-m:e-p270:32:32-p271:32:32-p272:64:64-i64:64-i128:128-f80:128-n8:16:32:64-S128"
target triple = "x86_64-pc-linux-gnu"

%class.LogTagSet = type { ptr, i64, [5 x i32], [4 x i8], %class.LogOutputList, %class.LogDecorators, ptr }
%class.LogOutputList = type <{ [6 x ptr], i32, [4 x i8] }>
%class.LogDecorators = type { i32 }
%class.ZErrno = type { i32 }
%class.GCLogPreciousHandle = type { %class.LogTargetHandle }
%class.LogTargetHandle = type { i32, ptr }
%class.ZPhysicalMemoryBacking = type <{ i32, [4 x i8], i64, i64, i64, i64, i8, [7 x i8] }>
%class.LogTargetImpl.4 = type { i8 }

@_ZL21z_fallocate_supported = internal global i8 1, align 1
@.str.50 = private unnamed_addr constant [47 x i8] c"Falling back to fallocate() compatibility mode\00", align 1
@_ZN16LogTagSetMappingILN6LogTag4typeE49ELS1_0ELS1_0ELS1_0ELS1_0ELS1_0EE7_tagsetE = linkonce_odr hidden global %class.LogTagSet zeroinitializer, comdat, align 8
@_ZN11ZLargePages6_stateE = external global i32, align 4

; Function Attrs: mustprogress nounwind uwtable
define linkonce_odr hidden noundef nonnull align 8 dereferenceable(112) ptr @_ZN16LogTagSetMappingILN6LogTag4typeE49ELS1_0ELS1_0ELS1_0ELS1_0ELS1_0EE6tagsetEv() #1 comdat align 2 {
  ret ptr @_ZN16LogTagSetMappingILN6LogTag4typeE49ELS1_0ELS1_0ELS1_0ELS1_0ELS1_0EE7_tagsetE
}

; Function Attrs: mustprogress nounwind uwtable
define linkonce_odr hidden void @_ZN15LogTargetHandleC2ILN8LogLevel4typeE2ELN6LogTag4typeE49ELS4_0ELS4_0ELS4_0ELS4_0ELS4_0EEERK13LogTargetImplIXT_EXT0_EXT1_EXT2_EXT3_EXT4_EXT5_EE(ptr noundef nonnull align 8 dereferenceable(16) %0, ptr noundef nonnull align 1 dereferenceable(1) %1) unnamed_addr #1 comdat align 2 {
  %3 = alloca ptr, align 8
  %4 = alloca ptr, align 8
  store ptr %0, ptr %3, align 8
  store ptr %1, ptr %4, align 8
  %5 = load ptr, ptr %3, align 8
  %6 = getelementptr inbounds %class.LogTargetHandle, ptr %5, i32 0, i32 0
  store i32 2, ptr %6, align 8
  %7 = getelementptr inbounds %class.LogTargetHandle, ptr %5, i32 0, i32 1
  %8 = call noundef nonnull align 8 dereferenceable(112) ptr @_ZN16LogTagSetMappingILN6LogTag4typeE49ELS1_0ELS1_0ELS1_0ELS1_0ELS1_0EE6tagsetEv()
  store ptr %8, ptr %7, align 8
  ret void
}

; Function Attrs: mustprogress nounwind uwtable
define linkonce_odr hidden void @_ZN13LogTargetImplILN8LogLevel4typeE2ELN6LogTag4typeE49ELS3_0ELS3_0ELS3_0ELS3_0ELS3_0EEC2Ev(ptr noundef nonnull align 1 dereferenceable(1) %0) unnamed_addr #1 comdat align 2 {
  %2 = alloca ptr, align 8
  store ptr %0, ptr %2, align 8
  ret void
}

; Function Attrs: mustprogress nounwind uwtable
define linkonce_odr hidden noundef i64 @_Z6untype7zoffset(i64 noundef %0) #1 comdat {
  %2 = alloca i64, align 8
  %3 = alloca i64, align 8
  store i64 %0, ptr %2, align 8
  %4 = load i64, ptr %2, align 8
  store i64 %4, ptr %3, align 8
  %5 = load i64, ptr %3, align 8
  ret i64 %5
}

; Function Attrs: mustprogress nounwind uwtable
define linkonce_odr hidden void @_ZN19GCLogPreciousHandleC2E15LogTargetHandle(ptr noundef nonnull align 8 dereferenceable(16) %0, i32 %1, ptr %2) unnamed_addr #1 comdat align 2 {
  %4 = alloca %class.LogTargetHandle, align 8
  %5 = alloca ptr, align 8
  %6 = getelementptr inbounds { i32, ptr }, ptr %4, i32 0, i32 0
  store i32 %1, ptr %6, align 8
  %7 = getelementptr inbounds { i32, ptr }, ptr %4, i32 0, i32 1
  store ptr %2, ptr %7, align 8
  store ptr %0, ptr %5, align 8
  %8 = load ptr, ptr %5, align 8
  %9 = getelementptr inbounds %class.GCLogPreciousHandle, ptr %8, i32 0, i32 0
  call void @llvm.memcpy.p0.p0.i64(ptr align 8 %9, ptr align 8 %4, i64 16, i1 false)
  ret void
}

; Function Attrs: mustprogress nounwind uwtable
define linkonce_odr hidden { i32, ptr } @_ZN15LogTargetHandle6createILN8LogLevel4typeE2ELN6LogTag4typeE49ELS4_0ELS4_0ELS4_0ELS4_0ELS4_0EEES_v() #1 comdat align 2 {
  %1 = alloca %class.LogTargetHandle, align 8
  %2 = alloca %class.LogTargetImpl.4, align 1
  call void @_ZN13LogTargetImplILN8LogLevel4typeE2ELN6LogTag4typeE49ELS3_0ELS3_0ELS3_0ELS3_0ELS3_0EEC2Ev(ptr noundef nonnull align 1 dereferenceable(1) %2)
  call void @_ZN15LogTargetHandleC2ILN8LogLevel4typeE2ELN6LogTag4typeE49ELS4_0ELS4_0ELS4_0ELS4_0ELS4_0EEERK13LogTargetImplIXT_EXT0_EXT1_EXT2_EXT3_EXT4_EXT5_EE(ptr noundef nonnull align 8 dereferenceable(16) %1, ptr noundef nonnull align 1 dereferenceable(1) %2)
  %3 = load { i32, ptr }, ptr %1, align 8
  ret { i32, ptr } %3
}

; Function Attrs: mustprogress nounwind uwtable
define hidden i32 @_ZNK22ZPhysicalMemoryBacking27fallocate_fill_hole_syscallE7zoffsetm(ptr noundef nonnull align 8 dereferenceable(41) %0, i64 noundef %1, i64 noundef %2) #1 align 2 {
  %4 = alloca %class.ZErrno, align 4
  %5 = alloca ptr, align 8
  %6 = alloca i64, align 8
  %7 = alloca i64, align 8
  %8 = alloca i32, align 4
  %9 = alloca i32, align 4
  store ptr %0, ptr %5, align 8
  store i64 %1, ptr %6, align 8
  store i64 %2, ptr %7, align 8
  %10 = load ptr, ptr %5, align 8
  store i32 0, ptr %8, align 4
  %11 = getelementptr inbounds %class.ZPhysicalMemoryBacking, ptr %10, i32 0, i32 0
  %12 = load i32, ptr %11, align 8
  %13 = load i64, ptr %6, align 8
  %14 = call noundef i64 @_Z6untype7zoffset(i64 noundef %13)
  %15 = load i64, ptr %7, align 8
  %16 = call noundef i32 @_ZN8ZSyscall9fallocateEiimm(i32 noundef %12, i32 noundef 0, i64 noundef %14, i64 noundef %15)
  store i32 %16, ptr %9, align 4
  %17 = load i32, ptr %9, align 4
  %18 = icmp eq i32 %17, -1
  br i1 %18, label %19, label %22

19:                                               ; preds = %3
  %20 = call ptr @__errno_location() #9
  %21 = load i32, ptr %20, align 4
  call void @_ZN6ZErrnoC1Ei(ptr noundef nonnull align 4 dereferenceable(4) %4, i32 noundef %21)
  br label %23

22:                                               ; preds = %3
  call void @_ZN6ZErrnoC1Ei(ptr noundef nonnull align 4 dereferenceable(4) %4, i32 noundef 0)
  br label %23

23:                                               ; preds = %22, %19
  %24 = getelementptr inbounds %class.ZErrno, ptr %4, i32 0, i32 0
  %25 = load i32, ptr %24, align 4
  ret i32 %25
}

; Function Attrs: mustprogress nounwind uwtable
define linkonce_odr hidden noundef zeroext i1 @_ZN11ZLargePages10is_enabledEv() #1 comdat align 2 {
  %1 = load i32, ptr @_ZN11ZLargePages6_stateE, align 4
  %2 = icmp ne i32 %1, 0
  ret i1 %2
}

; Function Attrs: mustprogress nounwind uwtable
define hidden i32 @_ZNK22ZPhysicalMemoryBacking19fallocate_fill_holeE7zoffsetm(ptr noundef nonnull align 8 dereferenceable(41) %0, i64 noundef %1, i64 noundef %2) #1 align 2 {
  %4 = alloca %class.ZErrno, align 4
  %5 = alloca ptr, align 8
  %6 = alloca i64, align 8
  %7 = alloca i64, align 8
  %8 = alloca %class.ZErrno, align 4
  %9 = alloca %class.GCLogPreciousHandle, align 8
  %10 = alloca %class.LogTargetHandle, align 8
  store ptr %0, ptr %5, align 8
  store i64 %1, ptr %6, align 8
  store i64 %2, ptr %7, align 8
  %11 = load ptr, ptr %5, align 8
  %12 = load i8, ptr @_ZL21z_fallocate_supported, align 1
  %13 = trunc i8 %12 to i1
  br i1 %13, label %14, label %38

14:                                               ; preds = %3
  %15 = call noundef zeroext i1 @_ZN11ZLargePages10is_enabledEv()
  br i1 %15, label %38, label %16

16:                                               ; preds = %14
  %17 = load i64, ptr %6, align 8
  %18 = load i64, ptr %7, align 8
  %19 = call i32 @_ZNK22ZPhysicalMemoryBacking27fallocate_fill_hole_syscallE7zoffsetm(ptr noundef nonnull align 8 dereferenceable(41) %11, i64 noundef %17, i64 noundef %18)
  %20 = getelementptr inbounds %class.ZErrno, ptr %8, i32 0, i32 0
  store i32 %19, ptr %20, align 4
  %21 = call noundef zeroext i1 @_ZNK6ZErrnocvbEv(ptr noundef nonnull align 4 dereferenceable(4) %8)
  br i1 %21, label %23, label %22

22:                                               ; preds = %16
  call void @_ZN6ZErrnoC1Ei(ptr noundef nonnull align 4 dereferenceable(4) %4, i32 noundef 0)
  br label %43

23:                                               ; preds = %16
  %24 = call noundef zeroext i1 @_ZNK6ZErrnoneEi(ptr noundef nonnull align 4 dereferenceable(4) %8, i32 noundef 38)
  br i1 %24, label %25, label %28

25:                                               ; preds = %23
  %26 = call noundef zeroext i1 @_ZNK6ZErrnoneEi(ptr noundef nonnull align 4 dereferenceable(4) %8, i32 noundef 95)
  br i1 %26, label %27, label %28

27:                                               ; preds = %25
  call void @llvm.memcpy.p0.p0.i64(ptr align 4 %4, ptr align 4 %8, i64 4, i1 false)
  br label %43

28:                                               ; preds = %25, %23
  %29 = call { i32, ptr } @_ZN15LogTargetHandle6createILN8LogLevel4typeE2ELN6LogTag4typeE49ELS4_0ELS4_0ELS4_0ELS4_0ELS4_0EEES_v()
  %30 = getelementptr inbounds { i32, ptr }, ptr %10, i32 0, i32 0
  %31 = extractvalue { i32, ptr } %29, 0
  store i32 %31, ptr %30, align 8
  %32 = getelementptr inbounds { i32, ptr }, ptr %10, i32 0, i32 1
  %33 = extractvalue { i32, ptr } %29, 1
  store ptr %33, ptr %32, align 8
  %34 = getelementptr inbounds { i32, ptr }, ptr %10, i32 0, i32 0
  %35 = load i32, ptr %34, align 8
  %36 = getelementptr inbounds { i32, ptr }, ptr %10, i32 0, i32 1
  %37 = load ptr, ptr %36, align 8
  call void @_ZN19GCLogPreciousHandleC2E15LogTargetHandle(ptr noundef nonnull align 8 dereferenceable(16) %9, i32 %35, ptr %37)
  call void (ptr, ptr, ...) @_ZN19GCLogPreciousHandle5writeEPKcz(ptr noundef nonnull align 8 dereferenceable(16) %9, ptr noundef @.str.50)
  store i8 0, ptr @_ZL21z_fallocate_supported, align 1
  br label %38

38:                                               ; preds = %28, %14, %3
  %39 = load i64, ptr %6, align 8
  %40 = load i64, ptr %7, align 8
  %41 = call i32 @_ZNK22ZPhysicalMemoryBacking26fallocate_fill_hole_compatE7zoffsetm(ptr noundef nonnull align 8 dereferenceable(41) %11, i64 noundef %39, i64 noundef %40)
  %42 = getelementptr inbounds %class.ZErrno, ptr %4, i32 0, i32 0
  store i32 %41, ptr %42, align 4
  br label %43

43:                                               ; preds = %38, %27, %22
  %44 = getelementptr inbounds %class.ZErrno, ptr %4, i32 0, i32 0
  %45 = load i32, ptr %44, align 4
  ret i32 %45
}