; Function Attrs: mustprogress nounwind uwtable
define hidden i32 @_ZNK22ZPhysicalMemoryBacking19fallocate_fill_holeE7zoffsetm(ptr nocapture noundef nonnull readonly align 8 dereferenceable(41) %0, i64 noundef %1, i64 noundef %2) local_unnamed_addr #0 align 2 {
  %4 = alloca %class.ZErrno, align 4
  %5 = alloca %class.ZErrno, align 4
  %6 = alloca %class.GCLogPreciousHandle, align 8
  %.b = load i1, ptr @_ZL21z_fallocate_supported, align 1
  %7 = load i32, ptr @_ZN11ZLargePages6_stateE, align 4
  %8 = icmp ne i32 %7, 0
  %or.cond = select i1 %.b, i1 true, i1 %8
  br i1 %or.cond, label %25, label %9

9:                                                ; preds = %3
  %10 = load i32, ptr %0, align 8
  %11 = tail call noundef i32 @_ZN8ZSyscall9fallocateEiimm(i32 noundef %10, i32 noundef 0, i64 noundef %1, i64 noundef %2) #12
  %12 = icmp eq i32 %11, -1
  br i1 %12, label %13, label %_ZNK22ZPhysicalMemoryBacking27fallocate_fill_hole_syscallE7zoffsetm.exit

13:                                               ; preds = %9
  %14 = tail call ptr @__errno_location() #13
  %15 = load i32, ptr %14, align 4
  br label %_ZNK22ZPhysicalMemoryBacking27fallocate_fill_hole_syscallE7zoffsetm.exit

_ZNK22ZPhysicalMemoryBacking27fallocate_fill_hole_syscallE7zoffsetm.exit: ; preds = %9, %13
  %.sink.i = phi i32 [ %15, %13 ], [ 0, %9 ]
  call void @_ZN6ZErrnoC1Ei(ptr noundef nonnull align 4 dereferenceable(4) %5, i32 noundef %.sink.i) #12
  %16 = call noundef zeroext i1 @_ZNK6ZErrnocvbEv(ptr noundef nonnull align 4 dereferenceable(4) %5) #12
  br i1 %16, label %18, label %17

17:                                               ; preds = %_ZNK22ZPhysicalMemoryBacking27fallocate_fill_hole_syscallE7zoffsetm.exit
  call void @_ZN6ZErrnoC1Ei(ptr noundef nonnull align 4 dereferenceable(4) %4, i32 noundef 0) #12
  %.pre = load i32, ptr %4, align 4
  br label %27

18:                                               ; preds = %_ZNK22ZPhysicalMemoryBacking27fallocate_fill_hole_syscallE7zoffsetm.exit
  %19 = call noundef zeroext i1 @_ZNK6ZErrnoneEi(ptr noundef nonnull align 4 dereferenceable(4) %5, i32 noundef 38) #12
  br i1 %19, label %20, label %24

20:                                               ; preds = %18
  %21 = call noundef zeroext i1 @_ZNK6ZErrnoneEi(ptr noundef nonnull align 4 dereferenceable(4) %5, i32 noundef 95) #12
  br i1 %21, label %22, label %24

22:                                               ; preds = %20
  %23 = load i32, ptr %5, align 4
  br label %27

24:                                               ; preds = %20, %18
  store i32 2, ptr %6, align 8
  %.sroa.21.0..sroa_idx.i = getelementptr inbounds i8, ptr %6, i64 8
  store ptr @_ZN16LogTagSetMappingILN6LogTag4typeE49ELS1_0ELS1_0ELS1_0ELS1_0ELS1_0EE7_tagsetE, ptr %.sroa.21.0..sroa_idx.i, align 8
  call void (ptr, ptr, ...) @_ZN19GCLogPreciousHandle5writeEPKcz(ptr noundef nonnull align 8 dereferenceable(16) %6, ptr noundef nonnull @.str.50)
  store i1 true, ptr @_ZL21z_fallocate_supported, align 1
  br label %25

25:                                               ; preds = %24, %3
  %26 = call i32 @_ZNK22ZPhysicalMemoryBacking26fallocate_fill_hole_compatE7zoffsetm(ptr noundef nonnull align 8 dereferenceable(41) %0, i64 noundef %1, i64 noundef %2)
  br label %27

27:                                               ; preds = %25, %22, %17
  %28 = phi i32 [ %26, %25 ], [ %23, %22 ], [ %.pre, %17 ]
  ret i32 %28
}